target datalayout = "e-m:e-p270:32:32-p271:32:32-p272:64:64-i64:64-i128:128-f80:128-n8:16:32:64-S128"
target triple = "x86_64-pc-linux-gnu"

; Function Attrs: nounwind uwtable
define internal i32 @lv_text_utf8_conv_wc(i32 noundef %0) #0 {
  %2 = alloca i32, align 4
  %3 = alloca i32, align 4
  %4 = alloca [4 x i8], align 1
  %5 = alloca i8, align 1
  store i32 %0, ptr %2, align 4, !tbaa !8
  %6 = load i32, ptr %2, align 4, !tbaa !8
  %7 = and i32 %6, 128
  %8 = icmp ne i32 %7, 0
  br i1 %8, label %9, label %47

9:                                                ; preds = %1
  call void @llvm.lifetime.start.p0(i64 4, ptr %3) #5
  call void @llvm.lifetime.start.p0(i64 4, ptr %4) #5
  %10 = getelementptr inbounds [4 x i8], ptr %4, i64 0, i64 0
  %11 = call ptr @lv_memcpy(ptr noundef %10, ptr noundef %2, i64 noundef 4)
  %12 = getelementptr inbounds [4 x i8], ptr %4, i64 0, i64 0
  %13 = load i8, ptr %12, align 1, !tbaa !7
  %14 = zext i8 %13 to i32
  %15 = shl i32 %14, 24
  %16 = getelementptr inbounds [4 x i8], ptr %4, i64 0, i64 1
  %17 = load i8, ptr %16, align 1, !tbaa !7
  %18 = zext i8 %17 to i32
  %19 = shl i32 %18, 16
  %20 = add nsw i32 %15, %19
  %21 = getelementptr inbounds [4 x i8], ptr %4, i64 0, i64 2
  %22 = load i8, ptr %21, align 1, !tbaa !7
  %23 = zext i8 %22 to i32
  %24 = shl i32 %23, 8
  %25 = add nsw i32 %20, %24
  %26 = getelementptr inbounds [4 x i8], ptr %4, i64 0, i64 3
  %27 = load i8, ptr %26, align 1, !tbaa !7
  %28 = zext i8 %27 to i32
  %29 = add nsw i32 %25, %28
  store i32 %29, ptr %3, align 4, !tbaa !8
  call void @llvm.lifetime.start.p0(i64 1, ptr %5) #5
  store i8 0, ptr %5, align 1, !tbaa !7
  br label %30

30:                                               ; preds = %42, %9
  %31 = load i8, ptr %5, align 1, !tbaa !7
  %32 = zext i8 %31 to i32
  %33 = icmp slt i32 %32, 4
  br i1 %33, label %34, label %45

34:                                               ; preds = %30
  %35 = load i32, ptr %3, align 4, !tbaa !8
  %36 = and i32 %35, 255
  %37 = icmp eq i32 %36, 0
  br i1 %37, label %38, label %41

38:                                               ; preds = %34
  %39 = load i32, ptr %3, align 4, !tbaa !8
  %40 = lshr i32 %39, 8
  store i32 %40, ptr %3, align 4, !tbaa !8
  br label %41

41:                                               ; preds = %38, %34
  br label %42

42:                                               ; preds = %41
  %43 = load i8, ptr %5, align 1, !tbaa !7
  %44 = add i8 %43, 1
  store i8 %44, ptr %5, align 1, !tbaa !7
  br label %30, !llvm.loop !10

45:                                               ; preds = %30
  %46 = load i32, ptr %3, align 4, !tbaa !8
  store i32 %46, ptr %2, align 4, !tbaa !8
  call void @llvm.lifetime.end.p0(i64 1, ptr %5) #5
  call void @llvm.lifetime.end.p0(i64 4, ptr %4) #5
  call void @llvm.lifetime.end.p0(i64 4, ptr %3) #5
  br label %47

47:                                               ; preds = %45, %1
  %48 = load i32, ptr %2, align 4, !tbaa !8
  ret i32 %48
}