; Function Attrs: nounwind uwtable
define internal i32 @lv_text_utf8_conv_wc(i32 noundef %0) #2 {
  %2 = alloca i32, align 4
  %3 = alloca [4 x i8], align 1
  store i32 %0, ptr %2, align 4, !tbaa !6
  %4 = and i32 %0, 128
  %.not = icmp eq i32 %4, 0
  br i1 %.not, label %30, label %5

5:                                                ; preds = %1
  call void @llvm.lifetime.start.p0(i64 4, ptr nonnull %3) #11
  %6 = call ptr @lv_memcpy(ptr noundef nonnull %3, ptr noundef nonnull %2, i64 noundef 4) #11
  %7 = load i8, ptr %3, align 1, !tbaa !3
  %8 = zext i8 %7 to i32
  %9 = shl nuw i32 %8, 24
  %10 = getelementptr inbounds i8, ptr %3, i64 1
  %11 = load i8, ptr %10, align 1, !tbaa !3
  %12 = zext i8 %11 to i32
  %13 = shl nuw nsw i32 %12, 16
  %14 = or disjoint i32 %13, %9
  %15 = getelementptr inbounds i8, ptr %3, i64 2
  %16 = load i8, ptr %15, align 1, !tbaa !3
  %17 = zext i8 %16 to i32
  %18 = shl nuw nsw i32 %17, 8
  %19 = or disjoint i32 %14, %18
  %20 = getelementptr inbounds i8, ptr %3, i64 3
  %21 = load i8, ptr %20, align 1, !tbaa !3
  %22 = zext i8 %21 to i32
  %23 = or disjoint i32 %19, %22
  br label %24

24:                                               ; preds = %5, %24
  %.07 = phi i8 [ 0, %5 ], [ %28, %24 ]
  %.056 = phi i32 [ %23, %5 ], [ %spec.select, %24 ]
  %25 = and i32 %.056, 255
  %26 = icmp eq i32 %25, 0
  %27 = lshr exact i32 %.056, 8
  %spec.select = select i1 %26, i32 %27, i32 %.056
  %28 = add nuw nsw i8 %.07, 1
  %exitcond.not = icmp eq i8 %28, 4
  br i1 %exitcond.not, label %29, label %24, !llvm.loop !8

29:                                               ; preds = %24
  call void @llvm.lifetime.end.p0(i64 4, ptr nonnull %3) #11
  br label %30

30:                                               ; preds = %29, %1
  %31 = phi i32 [ %spec.select, %29 ], [ %0, %1 ]
  ret i32 %31
}